target datalayout = "e-m:e-p270:32:32-p271:32:32-p272:64:64-i64:64-i128:128-f80:128-n8:16:32:64-S128"
target triple = "x86_64-pc-linux-gnu"

%struct._zval_struct = type { %union._zend_value, %union.anon.3, %union.anon.6 }
%union._zend_value = type { i64 }
%union.anon.3 = type { i32 }
%union.anon.6 = type { i32 }
%struct._zend_array = type { %struct._zend_refcounted_h, %union.anon.0, i32, %union.anon.1, i32, i32, i32, i32, i64, ptr }
%struct._zend_refcounted_h = type { i32, %union.anon }
%union.anon = type { i32 }
%union.anon.0 = type { i32 }
%union.anon.1 = type { ptr }
%struct._zend_pcre_globals = type { %struct._zend_array, i64, i64, i8, i32, %struct._zval_struct, %struct._zval_struct, ptr }

@char_tables = internal global %struct._zend_array zeroinitializer, align 8

; Function Attrs: nounwind uwtable
define internal void @zm_globals_ctor_pcre(ptr noundef %0) #0 {
  %2 = alloca ptr, align 8
  store ptr %0, ptr %2, align 8, !tbaa !146
  %3 = load ptr, ptr %2, align 8, !tbaa !146
  %4 = getelementptr inbounds nuw %struct._zend_pcre_globals, ptr %3, i32 0, i32 0
  call void @_zend_hash_init(ptr noundef %4, i32 noundef 0, ptr noundef @php_free_pcre_cache, i1 noundef zeroext true)
  %5 = load ptr, ptr %2, align 8, !tbaa !146
  %6 = getelementptr inbounds nuw %struct._zend_pcre_globals, ptr %5, i32 0, i32 1
  store i64 0, ptr %6, align 8, !tbaa !148
  %7 = load ptr, ptr %2, align 8, !tbaa !146
  %8 = getelementptr inbounds nuw %struct._zend_pcre_globals, ptr %7, i32 0, i32 2
  store i64 0, ptr %8, align 8, !tbaa !149
  %9 = load ptr, ptr %2, align 8, !tbaa !146
  %10 = getelementptr inbounds nuw %struct._zend_pcre_globals, ptr %9, i32 0, i32 4
  store i32 0, ptr %10, align 4, !tbaa !66
  br label %11

11:                                               ; preds = %1
  %12 = load ptr, ptr %2, align 8, !tbaa !146
  %13 = getelementptr inbounds nuw %struct._zend_pcre_globals, ptr %12, i32 0, i32 5
  %14 = getelementptr inbounds nuw %struct._zval_struct, ptr %13, i32 0, i32 1
  store i32 0, ptr %14, align 8, !tbaa !45
  br label %15

15:                                               ; preds = %11
  br label %16

16:                                               ; preds = %15
  %17 = load ptr, ptr %2, align 8, !tbaa !146
  %18 = getelementptr inbounds nuw %struct._zend_pcre_globals, ptr %17, i32 0, i32 6
  %19 = getelementptr inbounds nuw %struct._zval_struct, ptr %18, i32 0, i32 1
  store i32 0, ptr %19, align 8, !tbaa !45
  br label %20

20:                                               ; preds = %16
  %21 = load ptr, ptr %2, align 8, !tbaa !146
  %22 = getelementptr inbounds nuw %struct._zend_pcre_globals, ptr %21, i32 0, i32 3
  store i8 1, ptr %22, align 8, !tbaa !55
  call void @php_pcre_init_pcre2(i8 noundef zeroext 1)
  call void @_zend_hash_init(ptr noundef @char_tables, i32 noundef 1, ptr noundef @php_pcre_free_char_table, i1 noundef zeroext true)
  ret void
}