; Function Attrs: nounwind uwtable
define internal void @zm_globals_ctor_pcre(ptr noundef %0) #0 {
  tail call void @_zend_hash_init(ptr noundef %0, i32 noundef 0, ptr noundef nonnull @php_free_pcre_cache, i1 noundef zeroext true) #24
  %2 = getelementptr inbounds nuw i8, ptr %0, i64 56
  %3 = getelementptr inbounds nuw i8, ptr %0, i64 76
  store i32 0, ptr %3, align 4, !tbaa !18
  %4 = getelementptr inbounds nuw i8, ptr %0, i64 88
  store i32 0, ptr %4, align 8, !tbaa !11
  %5 = getelementptr inbounds nuw i8, ptr %0, i64 104
  store i32 0, ptr %5, align 8, !tbaa !11
  %6 = getelementptr inbounds nuw i8, ptr %0, i64 72
  tail call void @llvm.memset.p0.i64(ptr noundef nonnull align 8 dereferenceable(16) %2, i8 0, i64 16, i1 false)
  store i8 1, ptr %6, align 8, !tbaa !53
  tail call fastcc void @php_pcre_init_pcre2(i8 noundef zeroext 1)
  tail call void @_zend_hash_init(ptr noundef nonnull @char_tables, i32 noundef 1, ptr noundef nonnull @php_pcre_free_char_table, i1 noundef zeroext true) #24
  ret void
}